; Function Attrs: mustprogress nounwind uwtable
define internal void @_ZNSt15_Sp_counted_ptrIPN32pxrInternal_v0_24__pxrReserved__12_GLOBAL__N_121_TypedValueDataSourceINS0_7VtArrayINS0_7GfVec2fEEEEELN9__gnu_cxx12_Lock_policyE2EE10_M_disposeEv(ptr noundef nonnull readonly align 8 captures(none) dereferenceable(24) %0) unnamed_addr #4 align 2 {
  %2 = getelementptr inbounds nuw i8, ptr %0, i64 16
  %3 = load ptr, ptr %2, align 8
  %4 = icmp eq ptr %3, null
  br i1 %4, label %7, label %5

5:                                                ; preds = %1
  %6 = getelementptr inbounds nuw i8, ptr %3, i64 8
  tail call fastcc void @_ZN32pxrInternal_v0_24__pxrReserved__12_GLOBAL__N_115_VelocityHelperD2Ev(ptr noundef nonnull align 8 dereferenceable(64) %6) #29
  tail call void @_ZN32pxrInternal_v0_24__pxrReserved__16HdDataSourceBaseD2Ev(ptr noundef nonnull align 8 dereferenceable(72) %3) #29
  tail call void @_ZdlPvm(ptr noundef nonnull %3, i64 noundef 72) #27
  br label %7

7:                                                ; preds = %5, %1
  ret void
}